target datalayout = "e-m:e-p270:32:32-p271:32:32-p272:64:64-i64:64-i128:128-f80:128-n8:16:32:64-S128"
target triple = "x86_64-unknown-linux-gnu"

%class.mpz = type { i32, i8, ptr }
%class.svector = type { %class.vector }
%class.vector = type { ptr }
%"struct.std::pair" = type { i32, i32 }
%"class.polynomial::power" = type { %"struct.std::pair" }
%"class.polynomial::monomial" = type { i32, i32, i32, i32, i32, [0 x %"class.polynomial::power"] }
%"class.polynomial::manager" = type { ptr }
%"struct.polynomial::manager::imp" = type { ptr, ptr, %class.mpzzp_manager, %"class.upolynomial::manager", ptr, %class.ptr_vector, %class.id_gen, ptr, ptr, %class.mpz, ptr, %"class.polynomial::monomial2pos", %"class.polynomial::tmp_monomial", %class.svector.1, %class.svector.1, %class.ptr_vector.4, %class.svector, i8, i8, %"class.polynomial::manager::imp::som_buffer", %"class.polynomial::manager::imp::som_buffer", %"class.polynomial::manager::imp::cheap_som_buffer", %"class.polynomial::manager::imp::cheap_som_buffer", %class.vector.6, %class.svector, %class.svector.7, %class.svector, %"class.polynomial::manager::imp::som_buffer_vector", %"class.polynomial::manager::imp::newton_interpolator_vector", %class.scoped_ptr_vector, %"class.polynomial::manager::imp::var_max_degree", %"struct.polynomial::manager::imp::var_pos", %"class.polynomial::manager::imp::som_buffer_vector" }
%class.mpzzp_manager = type { ptr, i8, %class.mpz, %class.mpz, %class.mpz, i8, %class.mpz, %class.mpz, %class.mpz, %class.mpz }
%"class.upolynomial::manager" = type { %"class.upolynomial::core_manager", %class.svector.1, %class.svector.1, %class.svector.1, %class.svector.1, %class.svector.1 }
%"class.upolynomial::core_manager" = type { ptr, %class.mpzzp_manager, %class.svector.1, %class.svector.1, %class.svector.1, %class.svector.1, %class.svector.1, %class.svector.1, %class.svector.1, [6 x %class.svector.1], %class.svector.1, %class.svector.1, %class.svector.1 }
%class.ptr_vector = type { %class.vector.3 }
%class.vector.3 = type { ptr }
%class.id_gen = type { i32, %class.svector }
%"class.polynomial::monomial2pos" = type { %class.svector }
%"class.polynomial::tmp_monomial" = type <{ ptr, i32, [4 x i8] }>
%class.svector.1 = type { %class.vector.2 }
%class.vector.2 = type { ptr }
%class.ptr_vector.4 = type { %class.vector.5 }
%class.vector.5 = type { ptr }
%"class.polynomial::manager::imp::som_buffer" = type { ptr, %"class.polynomial::monomial2pos", %class.svector.1, %class.ptr_vector.4 }
%"class.polynomial::manager::imp::cheap_som_buffer" = type { ptr, %class.svector.1, %class.ptr_vector.4 }
%class.vector.6 = type { ptr }
%class.svector.7 = type { %class.vector.8 }
%class.vector.8 = type { ptr }
%"class.polynomial::manager::imp::newton_interpolator_vector" = type { ptr, %class.ptr_vector.11 }
%class.ptr_vector.11 = type { %class.vector.12 }
%class.vector.12 = type { ptr }
%class.scoped_ptr_vector = type { %class.ptr_vector.13 }
%class.ptr_vector.13 = type { %class.vector.14 }
%class.vector.14 = type { ptr }
%"class.polynomial::manager::imp::var_max_degree" = type { %class.svector, %class.svector }
%"struct.polynomial::manager::imp::var_pos" = type { %class.svector }
%"class.polynomial::manager::imp::som_buffer_vector" = type { ptr, %class.ptr_vector.9 }
%class.ptr_vector.9 = type { %class.vector.10 }
%class.vector.10 = type { ptr }
%"class.polynomial::polynomial" = type { i32, i32, i32, ptr, ptr }

; Function Attrs: mustprogress nounwind uwtable
define linkonce_odr hidden noundef zeroext i1 @_ZN11mpz_managerILb0EE8is_smallERK3mpz(ptr noundef nonnull align 8 dereferenceable(16) %a) #4 comdat align 2 {
entry:
  %a.addr = alloca ptr, align 8
  store ptr %a, ptr %a.addr, align 8
  %0 = load ptr, ptr %a.addr, align 8
  %m_kind = getelementptr inbounds %class.mpz, ptr %0, i32 0, i32 1
  %bf.load = load i8, ptr %m_kind, align 4
  %bf.clear = and i8 %bf.load, 1
  %bf.cast = zext i8 %bf.clear to i32
  %cmp = icmp eq i32 %bf.cast, 0
  ret i1 %cmp
}

; Function Attrs: mustprogress nounwind uwtable
define linkonce_odr hidden noundef i32 @_ZNK10polynomial5power7get_varEv(ptr noundef nonnull align 4 dereferenceable(8) %this) #4 comdat align 2 {
entry:
  %this.addr = alloca ptr, align 8
  store ptr %this, ptr %this.addr, align 8
  %this1 = load ptr, ptr %this.addr, align 8
  %first = getelementptr inbounds %"struct.std::pair", ptr %this1, i32 0, i32 0
  %0 = load i32, ptr %first, align 4
  ret i32 %0
}

; Function Attrs: mustprogress nounwind uwtable
define linkonce_odr hidden noundef i32 @_ZNK10polynomial5power6degreeEv(ptr noundef nonnull align 4 dereferenceable(8) %this) #4 comdat align 2 {
entry:
  %this.addr = alloca ptr, align 8
  store ptr %this, ptr %this.addr, align 8
  %this1 = load ptr, ptr %this.addr, align 8
  %second = getelementptr inbounds %"struct.std::pair", ptr %this1, i32 0, i32 1
  %0 = load i32, ptr %second, align 4
  ret i32 %0
}

; Function Attrs: mustprogress nounwind uwtable
define linkonce_odr hidden noundef nonnull align 4 dereferenceable(8) ptr @_ZNK10polynomial8monomial9get_powerEj(ptr noundef nonnull align 4 dereferenceable(20) %this, i32 noundef %idx) #4 comdat align 2 {
entry:
  %this.addr = alloca ptr, align 8
  %idx.addr = alloca i32, align 4
  store ptr %this, ptr %this.addr, align 8
  store i32 %idx, ptr %idx.addr, align 4
  %this1 = load ptr, ptr %this.addr, align 8
  %m_powers = getelementptr inbounds %"class.polynomial::monomial", ptr %this1, i32 0, i32 5
  %0 = load i32, ptr %idx.addr, align 4
  %idxprom = zext i32 %0 to i64
  %arrayidx = getelementptr inbounds [0 x %"class.polynomial::power"], ptr %m_powers, i64 0, i64 %idxprom
  ret ptr %arrayidx
}

; Function Attrs: mustprogress nounwind uwtable
define linkonce_odr hidden noundef zeroext i1 @_ZN11mpz_managerILb0EE6is_oneERK3mpz(ptr noundef nonnull align 8 dereferenceable(16) %a) #4 comdat align 2 {
entry:
  %a.addr = alloca ptr, align 8
  store ptr %a, ptr %a.addr, align 8
  %0 = load ptr, ptr %a.addr, align 8
  %call = call noundef zeroext i1 @_ZN11mpz_managerILb0EE8is_smallERK3mpz(ptr noundef nonnull align 8 dereferenceable(16) %0)
  br i1 %call, label %land.rhs, label %land.end

land.rhs:                                         ; preds = %entry
  %1 = load ptr, ptr %a.addr, align 8
  %m_val = getelementptr inbounds %class.mpz, ptr %1, i32 0, i32 0
  %2 = load i32, ptr %m_val, align 8
  %cmp = icmp eq i32 %2, 1
  br label %land.end

land.end:                                         ; preds = %land.rhs, %entry
  %3 = phi i1 [ false, %entry ], [ %cmp, %land.rhs ]
  ret i1 %3
}

; Function Attrs: mustprogress nounwind uwtable
define linkonce_odr hidden noundef i32 @_ZNK10polynomial8monomial7get_varEj(ptr noundef nonnull align 4 dereferenceable(20) %this, i32 noundef %idx) #4 comdat align 2 {
entry:
  %this.addr = alloca ptr, align 8
  %idx.addr = alloca i32, align 4
  store ptr %this, ptr %this.addr, align 8
  store i32 %idx, ptr %idx.addr, align 4
  %this1 = load ptr, ptr %this.addr, align 8
  %0 = load i32, ptr %idx.addr, align 4
  %call = call noundef nonnull align 4 dereferenceable(8) ptr @_ZNK10polynomial8monomial9get_powerEj(ptr noundef nonnull align 4 dereferenceable(20) %this1, i32 noundef %0)
  %call2 = call noundef i32 @_ZNK10polynomial5power7get_varEv(ptr noundef nonnull align 4 dereferenceable(8) %call)
  ret i32 %call2
}

; Function Attrs: mustprogress nounwind uwtable
define linkonce_odr hidden noundef i32 @_ZNK10polynomial8monomial6degreeEj(ptr noundef nonnull align 4 dereferenceable(20) %this, i32 noundef %idx) #4 comdat align 2 {
entry:
  %this.addr = alloca ptr, align 8
  %idx.addr = alloca i32, align 4
  store ptr %this, ptr %this.addr, align 8
  store i32 %idx, ptr %idx.addr, align 4
  %this1 = load ptr, ptr %this.addr, align 8
  %0 = load i32, ptr %idx.addr, align 4
  %call = call noundef nonnull align 4 dereferenceable(8) ptr @_ZNK10polynomial8monomial9get_powerEj(ptr noundef nonnull align 4 dereferenceable(20) %this1, i32 noundef %0)
  %call2 = call noundef i32 @_ZNK10polynomial5power6degreeEv(ptr noundef nonnull align 4 dereferenceable(8) %call)
  ret i32 %call2
}

; Function Attrs: mustprogress nounwind uwtable
define linkonce_odr hidden noundef i32 @_ZNK10polynomial8monomial4sizeEv(ptr noundef nonnull align 4 dereferenceable(20) %this) #4 comdat align 2 {
entry:
  %this.addr = alloca ptr, align 8
  store ptr %this, ptr %this.addr, align 8
  %this1 = load ptr, ptr %this.addr, align 8
  %m_size = getelementptr inbounds %"class.polynomial::monomial", ptr %this1, i32 0, i32 3
  %0 = load i32, ptr %m_size, align 4
  ret i32 %0
}

; Function Attrs: mustprogress uwtable
define linkonce_odr hidden noundef zeroext i1 @_ZN13mpzzp_manager6is_oneERK3mpz(ptr noundef nonnull align 8 dereferenceable(136) %this, ptr noundef nonnull align 8 dereferenceable(16) %a) #5 comdat align 2 {
entry:
  %this.addr = alloca ptr, align 8
  %a.addr = alloca ptr, align 8
  store ptr %this, ptr %this.addr, align 8
  store ptr %a, ptr %a.addr, align 8
  %0 = load ptr, ptr %a.addr, align 8
  %call = call noundef zeroext i1 @_ZN11mpz_managerILb0EE6is_oneERK3mpz(ptr noundef nonnull align 8 dereferenceable(16) %0)
  ret i1 %call
}

; Function Attrs: mustprogress nounwind uwtable
define linkonce_odr hidden noundef nonnull align 8 dereferenceable(16) ptr @_ZNK10polynomial10polynomial1aEj(ptr noundef nonnull align 8 dereferenceable(32) %this, i32 noundef %idx) #4 comdat align 2 {
entry:
  %this.addr = alloca ptr, align 8
  %idx.addr = alloca i32, align 4
  store ptr %this, ptr %this.addr, align 8
  store i32 %idx, ptr %idx.addr, align 4
  %this1 = load ptr, ptr %this.addr, align 8
  %m_as = getelementptr inbounds %"class.polynomial::polynomial", ptr %this1, i32 0, i32 3
  %0 = load ptr, ptr %m_as, align 8
  %1 = load i32, ptr %idx.addr, align 4
  %idxprom = zext i32 %1 to i64
  %arrayidx = getelementptr inbounds %class.mpz, ptr %0, i64 %idxprom
  ret ptr %arrayidx
}

; Function Attrs: mustprogress nounwind uwtable
define linkonce_odr hidden noundef nonnull align 8 dereferenceable(136) ptr @_ZNK10polynomial7manager3imp1mEv(ptr noundef nonnull align 8 dereferenceable(824) %this) #4 comdat align 2 {
entry:
  %this.addr = alloca ptr, align 8
  store ptr %this, ptr %this.addr, align 8
  %this1 = load ptr, ptr %this.addr, align 8
  %m_manager = getelementptr inbounds %"struct.polynomial::manager::imp", ptr %this1, i32 0, i32 2
  ret ptr %m_manager
}

; Function Attrs: mustprogress uwtable
define hidden noundef zeroext i1 @_ZN10polynomial7manager6is_varEPKNS_8monomialERj(ptr noundef %m, ptr noundef nonnull align 4 dereferenceable(4) %v) #5 align 2 {
entry:
  %m.addr = alloca ptr, align 8
  %v.addr = alloca ptr, align 8
  store ptr %m, ptr %m.addr, align 8
  store ptr %v, ptr %v.addr, align 8
  %0 = load ptr, ptr %m.addr, align 8
  %call = call noundef i32 @_ZNK10polynomial8monomial4sizeEv(ptr noundef nonnull align 4 dereferenceable(20) %0)
  %cmp = icmp eq i32 %call, 1
  br i1 %cmp, label %land.lhs.true, label %land.end

land.lhs.true:                                    ; preds = %entry
  %1 = load ptr, ptr %m.addr, align 8
  %call1 = call noundef i32 @_ZNK10polynomial8monomial6degreeEj(ptr noundef nonnull align 4 dereferenceable(20) %1, i32 noundef 0)
  %cmp2 = icmp eq i32 %call1, 1
  br i1 %cmp2, label %land.rhs, label %land.end

land.rhs:                                         ; preds = %land.lhs.true
  %2 = load ptr, ptr %m.addr, align 8
  %call3 = call noundef i32 @_ZNK10polynomial8monomial7get_varEj(ptr noundef nonnull align 4 dereferenceable(20) %2, i32 noundef 0)
  %3 = load ptr, ptr %v.addr, align 8
  store i32 %call3, ptr %3, align 4
  br label %land.end

land.end:                                         ; preds = %land.rhs, %land.lhs.true, %entry
  %4 = phi i1 [ false, %land.lhs.true ], [ false, %entry ], [ true, %land.rhs ]
  ret i1 %4
}

; Function Attrs: mustprogress nounwind uwtable
define linkonce_odr hidden noundef ptr @_ZNK10polynomial10polynomial1mEj(ptr noundef nonnull align 8 dereferenceable(32) %this, i32 noundef %idx) #4 comdat align 2 {
entry:
  %this.addr = alloca ptr, align 8
  %idx.addr = alloca i32, align 4
  store ptr %this, ptr %this.addr, align 8
  store i32 %idx, ptr %idx.addr, align 4
  %this1 = load ptr, ptr %this.addr, align 8
  %m_ms = getelementptr inbounds %"class.polynomial::polynomial", ptr %this1, i32 0, i32 4
  %0 = load ptr, ptr %m_ms, align 8
  %1 = load i32, ptr %idx.addr, align 4
  %idxprom = zext i32 %1 to i64
  %arrayidx = getelementptr inbounds ptr, ptr %0, i64 %idxprom
  %2 = load ptr, ptr %arrayidx, align 8
  ret ptr %2
}

; Function Attrs: mustprogress nounwind uwtable
define linkonce_odr hidden noundef i32 @_ZNK10polynomial10polynomial4sizeEv(ptr noundef nonnull align 8 dereferenceable(32) %this) #4 comdat align 2 {
entry:
  %this.addr = alloca ptr, align 8
  store ptr %this, ptr %this.addr, align 8
  %this1 = load ptr, ptr %this.addr, align 8
  %m_size = getelementptr inbounds %"class.polynomial::polynomial", ptr %this1, i32 0, i32 2
  %0 = load i32, ptr %m_size, align 8
  ret i32 %0
}

; Function Attrs: mustprogress uwtable
define hidden noundef zeroext i1 @_ZN10polynomial7manager6is_varEPKNS_10polynomialERj(ptr noundef nonnull align 8 dereferenceable(8) %this, ptr noundef %p, ptr noundef nonnull align 4 dereferenceable(4) %v) #5 align 2 {
entry:
  %this.addr = alloca ptr, align 8
  %p.addr = alloca ptr, align 8
  %v.addr = alloca ptr, align 8
  store ptr %this, ptr %this.addr, align 8
  store ptr %p, ptr %p.addr, align 8
  store ptr %v, ptr %v.addr, align 8
  %this1 = load ptr, ptr %this.addr, align 8
  %0 = load ptr, ptr %p.addr, align 8
  %call = call noundef i32 @_ZNK10polynomial10polynomial4sizeEv(ptr noundef nonnull align 8 dereferenceable(32) %0)
  %cmp = icmp eq i32 %call, 1
  br i1 %cmp, label %land.lhs.true, label %land.end

land.lhs.true:                                    ; preds = %entry
  %1 = load ptr, ptr %p.addr, align 8
  %call2 = call noundef ptr @_ZNK10polynomial10polynomial1mEj(ptr noundef nonnull align 8 dereferenceable(32) %1, i32 noundef 0)
  %2 = load ptr, ptr %v.addr, align 8
  %call3 = call noundef zeroext i1 @_ZN10polynomial7manager6is_varEPKNS_8monomialERj(ptr noundef %call2, ptr noundef nonnull align 4 dereferenceable(4) %2)
  br i1 %call3, label %land.rhs, label %land.end

land.rhs:                                         ; preds = %land.lhs.true
  %m_imp = getelementptr inbounds %"class.polynomial::manager", ptr %this1, i32 0, i32 0
  %3 = load ptr, ptr %m_imp, align 8
  %call4 = call noundef nonnull align 8 dereferenceable(136) ptr @_ZNK10polynomial7manager3imp1mEv(ptr noundef nonnull align 8 dereferenceable(824) %3)
  %4 = load ptr, ptr %p.addr, align 8
  %call5 = call noundef nonnull align 8 dereferenceable(16) ptr @_ZNK10polynomial10polynomial1aEj(ptr noundef nonnull align 8 dereferenceable(32) %4, i32 noundef 0)
  %call6 = call noundef zeroext i1 @_ZN13mpzzp_manager6is_oneERK3mpz(ptr noundef nonnull align 8 dereferenceable(136) %call4, ptr noundef nonnull align 8 dereferenceable(16) %call5)
  br label %land.end

land.end:                                         ; preds = %land.rhs, %land.lhs.true, %entry
  %5 = phi i1 [ false, %land.lhs.true ], [ false, %entry ], [ %call6, %land.rhs ]
  ret i1 %5
}