; Function Attrs: mustprogress nofree norecurse nosync nounwind willreturn memory(read, argmem: readwrite, inaccessiblemem: none) uwtable
define hidden noundef zeroext i1 @_ZN10polynomial7manager6is_varEPKNS_10polynomialERj(ptr nocapture noundef nonnull readonly align 8 dereferenceable(8) %this, ptr nocapture noundef readonly %p, ptr nocapture noundef nonnull writeonly align 4 dereferenceable(4) %v) local_unnamed_addr #14 align 2 {
entry:
  %m_size.i = getelementptr inbounds i8, ptr %p, i64 8
  %0 = load i32, ptr %m_size.i, align 8
  %cmp = icmp eq i32 %0, 1
  br i1 %cmp, label %land.lhs.true, label %land.end

land.lhs.true:                                    ; preds = %entry
  %m_ms.i = getelementptr inbounds i8, ptr %p, i64 24
  %1 = load ptr, ptr %m_ms.i, align 8
  %2 = load ptr, ptr %1, align 8
  %m_size.i.i = getelementptr inbounds i8, ptr %2, i64 12
  %3 = load i32, ptr %m_size.i.i, align 4
  %cmp.i = icmp eq i32 %3, 1
  br i1 %cmp.i, label %land.lhs.true.i, label %land.end

land.lhs.true.i:                                  ; preds = %land.lhs.true
  %second.i.i.i = getelementptr inbounds i8, ptr %2, i64 24
  %4 = load i32, ptr %second.i.i.i, align 4
  %cmp2.i = icmp eq i32 %4, 1
  br i1 %cmp2.i, label %land.rhs, label %land.end

land.rhs:                                         ; preds = %land.lhs.true.i
  %m_powers.i.i.i = getelementptr inbounds i8, ptr %2, i64 20
  %5 = load i32, ptr %m_powers.i.i.i, align 4
  store i32 %5, ptr %v, align 4
  %m_as.i = getelementptr inbounds i8, ptr %p, i64 16
  %6 = load ptr, ptr %m_as.i, align 8
  %m_kind.i.i.i = getelementptr inbounds i8, ptr %6, i64 4
  %bf.load.i.i.i = load i8, ptr %m_kind.i.i.i, align 4
  %bf.clear.i.i.i = and i8 %bf.load.i.i.i, 1
  %cmp.i.i.i = icmp eq i8 %bf.clear.i.i.i, 0
  %7 = load i32, ptr %6, align 8
  %cmp.i.i = icmp eq i32 %7, 1
  %8 = select i1 %cmp.i.i.i, i1 %cmp.i.i, i1 false
  br label %land.end

land.end:                                         ; preds = %land.lhs.true, %land.lhs.true.i, %land.rhs, %entry
  %9 = phi i1 [ false, %entry ], [ %8, %land.rhs ], [ false, %land.lhs.true.i ], [ false, %land.lhs.true ]
  ret i1 %9
}